(dp0
S'dalmatian1'
p1
(lp2
S'animal_f0'
p3
aS'animal_f1'
p4
aS'animal_f2'
p5
aS'dog_f0'
p6
aS'dog_f1'
p7
aS'dog_f2'
p8
aS'dalmatian_f0'
p9
aS'dalmatian_f1'
p10
aS'dalmatian_f2'
p11
aS'color22'
p12
aS'pose22'
p13
aS'size22'
p14
asS'dalmatian0'
p15
(lp16
g3
ag4
ag5
ag6
ag7
ag8
ag9
ag10
ag11
aS'color21'
p17
aS'pose21'
p18
aS'size21'
p19
asS'dalmatian2'
p20
(lp21
g3
ag4
ag5
ag6
ag7
ag8
ag9
ag10
ag11
aS'color23'
p22
aS'pose23'
p23
aS'size23'
p24
asS'siamese1'
p25
(lp26
S'animal_f0'
p27
aS'animal_f1'
p28
aS'animal_f2'
p29
aS'cat_f0'
p30
aS'cat_f1'
p31
aS'cat_f2'
p32
aS'siamese_f0'
p33
aS'siamese_f1'
p34
aS'siamese_f2'
p35
aS'color37'
p36
aS'pose37'
p37
aS'size37'
p38
asS'siamese0'
p39
(lp40
g27
ag28
ag29
ag30
ag31
ag32
ag33
ag34
ag35
aS'color36'
p41
aS'pose36'
p42
aS'size36'
p43
asS'siamese2'
p44
(lp45
g27
ag28
ag29
ag30
ag31
ag32
ag33
ag34
ag35
aS'color38'
p46
aS'pose38'
p47
aS'size38'
p48
asS'flounder2'
p49
(lp50
S'animal_f0'
p51
aS'animal_f1'
p52
aS'animal_f2'
p53
aS'fish_f0'
p54
aS'fish_f1'
p55
aS'fish_f2'
p56
aS'flounder_f0'
p57
aS'flounder_f1'
p58
aS'flounder_f2'
p59
aS'color41'
p60
aS'pose41'
p61
aS'size41'
p62
asS'flounder0'
p63
(lp64
g51
ag52
ag53
ag54
ag55
ag56
ag57
ag58
ag59
aS'color39'
p65
aS'pose39'
p66
aS'size39'
p67
asS'flounder1'
p68
(lp69
g51
ag52
ag53
ag54
ag55
ag56
ag57
ag58
ag59
aS'color40'
p70
aS'pose40'
p71
aS'size40'
p72
asS'shark2'
p73
(lp74
S'animal_f0'
p75
aS'animal_f1'
p76
aS'animal_f2'
p77
aS'fish_f0'
p78
aS'fish_f1'
p79
aS'fish_f2'
p80
aS'shark_f0'
p81
aS'shark_f1'
p82
aS'shark_f2'
p83
aS'color44'
p84
aS'pose44'
p85
aS'size44'
p86
asS'shark1'
p87
(lp88
g75
ag76
ag77
ag78
ag79
ag80
ag81
ag82
ag83
aS'color43'
p89
aS'pose43'
p90
aS'size43'
p91
asS'shark0'
p92
(lp93
g75
ag76
ag77
ag78
ag79
ag80
ag81
ag82
ag83
aS'color42'
p94
aS'pose42'
p95
aS'size42'
p96
asS'salmon1'
p97
(lp98
S'animal_f0'
p99
aS'animal_f1'
p100
aS'animal_f2'
p101
aS'fish_f0'
p102
aS'fish_f1'
p103
aS'fish_f2'
p104
aS'salmon_f0'
p105
aS'salmon_f1'
p106
aS'salmon_f2'
p107
aS'color46'
p108
aS'pose46'
p109
aS'size46'
p110
asS'salmon0'
p111
(lp112
g99
ag100
ag101
ag102
ag103
ag104
ag105
ag106
ag107
aS'color45'
p113
aS'pose45'
p114
aS'size45'
p115
asS'salmon2'
p116
(lp117
g99
ag100
ag101
ag102
ag103
ag104
ag105
ag106
ag107
aS'color47'
p118
aS'pose47'
p119
aS'size47'
p120
asS'pug0'
p121
(lp122
S'animal_f0'
p123
aS'animal_f1'
p124
aS'animal_f2'
p125
aS'dog_f0'
p126
aS'dog_f1'
p127
aS'dog_f2'
p128
aS'pug_f0'
p129
aS'pug_f1'
p130
aS'pug_f2'
p131
aS'color27'
p132
aS'pose27'
p133
aS'size27'
p134
asS'pug1'
p135
(lp136
g123
ag124
ag125
ag126
ag127
ag128
ag129
ag130
ag131
aS'color28'
p137
aS'pose28'
p138
aS'size28'
p139
asS'pug2'
p140
(lp141
g123
ag124
ag125
ag126
ag127
ag128
ag129
ag130
ag131
aS'color29'
p142
aS'pose29'
p143
aS'size29'
p144
asS'manx1'
p145
(lp146
S'animal_f0'
p147
aS'animal_f1'
p148
aS'animal_f2'
p149
aS'cat_f0'
p150
aS'cat_f1'
p151
aS'cat_f2'
p152
aS'manx_f0'
p153
aS'manx_f1'
p154
aS'manx_f2'
p155
aS'color31'
p156
aS'pose31'
p157
aS'size31'
p158
asS'manx0'
p159
(lp160
g147
ag148
ag149
ag150
ag151
ag152
ag153
ag154
ag155
aS'color30'
p161
aS'pose30'
p162
aS'size30'
p163
asS'manx2'
p164
(lp165
g147
ag148
ag149
ag150
ag151
ag152
ag153
ag154
ag155
aS'color32'
p166
aS'pose32'
p167
aS'size32'
p168
asS'poodle2'
p169
(lp170
S'animal_f0'
p171
aS'animal_f1'
p172
aS'animal_f2'
p173
aS'dog_f0'
p174
aS'dog_f1'
p175
aS'dog_f2'
p176
aS'poodle_f0'
p177
aS'poodle_f1'
p178
aS'poodle_f2'
p179
aS'color26'
p180
aS'pose26'
p181
aS'size26'
p182
asS'poodle0'
p183
(lp184
g171
ag172
ag173
ag174
ag175
ag176
ag177
ag178
ag179
aS'color24'
p185
aS'pose24'
p186
aS'size24'
p187
asS'poodle1'
p188
(lp189
g171
ag172
ag173
ag174
ag175
ag176
ag177
ag178
ag179
aS'color25'
p190
aS'pose25'
p191
aS'size25'
p192
asS'tabby0'
p193
(lp194
S'animal_f0'
p195
aS'animal_f1'
p196
aS'animal_f2'
p197
aS'cat_f0'
p198
aS'cat_f1'
p199
aS'cat_f2'
p200
aS'tabby_f0'
p201
aS'tabby_f1'
p202
aS'tabby_f2'
p203
aS'color33'
p204
aS'pose33'
p205
aS'size33'
p206
asS'tabby1'
p207
(lp208
g195
ag196
ag197
ag198
ag199
ag200
ag201
ag202
ag203
aS'color34'
p209
aS'pose34'
p210
aS'size34'
p211
asS'tabby2'
p212
(lp213
g195
ag196
ag197
ag198
ag199
ag200
ag201
ag202
ag203
aS'color35'
p214
aS'pose35'
p215
aS'size35'
p216
as.