(dp0
S'rocking-chair1'
p1
(lp2
S'entity'
p3
aS'whole'
p4
aS'decoration'
p5
aS'for-sitting'
p6
aS'supports-people'
p7
aS'on-rockers'
p8
aS'rocks'
p9
ag1
asS'rocking-chair0'
p10
(lp11
g3
ag4
ag5
ag6
ag7
ag8
ag9
ag10
asS'rocking-chair2'
p12
(lp13
g3
ag4
ag5
ag6
ag7
ag8
ag9
ag12
asS'airliner2'
p14
(lp15
S'entity'
p16
aS'whole'
p17
aS'transport'
p18
aS'flies'
p19
aS'fixed-wings'
p20
aS'carries-passengers'
p21
aS'has-turbines'
p22
ag14
asS'seaplane2'
p23
(lp24
S'entity'
p25
aS'whole'
p26
aS'transport'
p27
aS'flies'
p28
aS'fixed-wings'
p29
aS'has-pontoons'
p30
aS'has-propellor'
p31
ag23
asS'seaplane0'
p32
(lp33
g25
ag26
ag27
ag28
ag29
ag30
ag31
ag32
asS'seaplane1'
p34
(lp35
g25
ag26
ag27
ag28
ag29
ag30
ag31
ag34
asS'Golden-Delicious0'
p36
(lp37
S'entity'
p38
aS'whole'
p39
aS'produce'
p40
aS'midsize'
p41
aS'apple-shape'
p42
aS'has-stem'
p43
aS'yellow'
p44
aS'sweet'
p45
ag36
asS'Golden-Delicious1'
p46
(lp47
g38
ag39
ag40
ag41
ag42
ag43
ag44
ag45
ag46
asS'Golden-Delicious2'
p48
(lp49
g38
ag39
ag40
ag41
ag42
ag43
ag44
ag45
ag48
asS'coffee-table0'
p50
(lp51
S'entity'
p52
aS'whole'
p53
aS'decoration'
p54
aS'flat-surface'
p55
aS'supports-objects'
p56
aS'low-height'
p57
aS'in-living-room'
p58
ag50
asS'coffee-table1'
p59
(lp60
g52
ag53
ag54
ag55
ag56
ag57
ag58
ag59
asS'coffee-table2'
p61
(lp62
g52
ag53
ag54
ag55
ag56
ag57
ag58
ag61
asS'kitchen-table2'
p63
(lp64
S'entity'
p65
aS'whole'
p66
aS'decoration'
p67
aS'flat-surface'
p68
aS'supports-objects'
p69
aS'in-kitchen'
p70
aS'for-dining'
p71
ag63
asS'kitchen-table1'
p72
(lp73
g65
ag66
ag67
ag68
ag69
ag70
ag71
ag72
asS'kitchen-table0'
p74
(lp75
g65
ag66
ag67
ag68
ag69
ag70
ag71
ag74
asS'tugboat2'
p76
(lp77
S'entity'
p78
aS'whole'
p79
aS'transport'
p80
aS'floats'
p81
aS'moves-across-water'
p82
aS'tows-boats'
p83
aS'small-hull'
p84
ag76
asS'tugboat0'
p85
(lp86
g78
ag79
ag80
ag81
ag82
ag83
ag84
ag85
asS'tugboat1'
p87
(lp88
g78
ag79
ag80
ag81
ag82
ag83
ag84
ag87
asS'flounder2'
p89
(lp90
S'whole'
p91
aS'animate'
p92
aS'aquatic'
p93
aS'has-gills'
p94
aS'has-fins'
p95
aS'flat'
p96
aS'eyes-on-top'
p97
ag89
asS'flounder0'
p98
(lp99
g91
ag92
ag93
ag94
ag95
ag96
ag97
ag98
asS'flounder1'
p100
(lp101
g91
ag92
ag93
ag94
ag95
ag96
ag97
ag100
asS'motorboat1'
p102
(lp103
S'entity'
p104
aS'whole'
p105
aS'transport'
p106
aS'floats'
p107
aS'moves-across-water'
p108
aS'has-engine'
p109
aS'pointed-hull'
p110
ag102
asS'motorboat0'
p111
(lp112
g104
ag105
ag106
ag107
ag108
ag109
ag110
ag111
asS'motorboat2'
p113
(lp114
g104
ag105
ag106
ag107
ag108
ag109
ag110
ag113
asS'card-table0'
p115
(lp116
S'entity'
p117
aS'whole'
p118
aS'decoration'
p119
aS'flat-surface'
p120
aS'supports-objects'
p121
aS'light-weight'
p122
aS'folding-legs'
p123
ag115
asS'card-table1'
p124
(lp125
g117
ag118
ag119
ag120
ag121
ag122
ag123
ag124
asS'card-table2'
p126
(lp127
g117
ag118
ag119
ag120
ag121
ag122
ag123
ag126
asS'shark2'
p128
(lp129
S'whole'
p130
aS'animate'
p131
aS'aquatic'
p132
aS'has-gills'
p133
aS'sharp-teeth'
p134
aS'has-snout'
p135
ag128
asS'shark1'
p136
(lp137
g130
ag131
ag132
ag133
ag134
ag135
ag136
asS'shark0'
p138
(lp139
g130
ag131
ag132
ag133
ag134
ag135
ag138
asS'pug0'
p140
(lp141
S'entity'
p142
aS'whole'
p143
aS'animate'
p144
aS'canine'
p145
aS'carnivore'
p146
aS'mammal'
p147
aS'wrinkly'
p148
aS'short-muzzle'
p149
ag140
asS'pug1'
p150
(lp151
g142
ag143
ag144
ag145
ag146
ag147
ag148
ag149
ag150
asS'pug2'
p152
(lp153
g142
ag143
ag144
ag145
ag146
ag147
ag148
ag149
ag152
asS'poodle2'
p154
(lp155
S'entity'
p156
aS'whole'
p157
aS'animate'
p158
aS'canine'
p159
aS'carnivore'
p160
aS'mammal'
p161
aS'curly-fur'
p162
aS'does-tricks'
p163
ag154
asS'poodle0'
p164
(lp165
g156
ag157
ag158
ag159
ag160
ag161
ag162
ag163
ag164
asS'poodle1'
p166
(lp167
g156
ag157
ag158
ag159
ag160
ag161
ag162
ag163
ag166
asS'Granny-Smith0'
p168
(lp169
S'entity'
p170
aS'whole'
p171
aS'produce'
p172
aS'midsize'
p173
aS'apple-shape'
p174
aS'has-stem'
p175
aS'green'
p176
aS'sour'
p177
ag168
asS'semitrailer0'
p178
(lp179
S'entity'
p180
aS'whole'
p181
aS'transport'
p182
aS'drives-on-roads'
p183
aS'separate-cab'
p184
aS'has-trailer'
p185
aS'hauls-cargo'
p186
ag178
asS'sailboat0'
p187
(lp188
S'entity'
p189
aS'whole'
p190
aS'transport'
p191
aS'floats'
p192
aS'moves-across-water'
p193
aS'has-sail'
p194
aS'has-rigging'
p195
ag187
asS'semitrailer2'
p196
(lp197
g180
ag181
ag182
ag183
ag184
ag185
ag186
ag196
asS'blueberry2'
p198
(lp199
S'entity'
p200
aS'whole'
p201
aS'produce'
p202
aS'small'
p203
aS'fleshy'
p204
aS'flared-end'
p205
aS'blue'
p206
ag198
asS'blueberry0'
p207
(lp208
g200
ag201
ag202
ag203
ag204
ag205
ag206
ag207
asS'blueberry1'
p209
(lp210
g200
ag201
ag202
ag203
ag204
ag205
ag206
ag209
asS'siamese1'
p211
(lp212
S'entity'
p213
aS'whole'
p214
aS'animate'
p215
aS'feline'
p216
aS'carnivore'
p217
aS'mammal'
p218
aS'dark-face'
p219
aS'blue-eyes'
p220
ag211
asS'siamese0'
p221
(lp222
g213
ag214
ag215
ag216
ag217
ag218
ag219
ag220
ag221
asS'siamese2'
p223
(lp224
g213
ag214
ag215
ag216
ag217
ag218
ag219
ag220
ag223
asS'raspberry0'
p225
(lp226
S'entity'
p227
aS'whole'
p228
aS'produce'
p229
aS'small'
p230
aS'fleshy'
p231
aS'small-pods'
p232
aS'fuzzy'
p233
ag225
asS'raspberry1'
p234
(lp235
g227
ag228
ag229
ag230
ag231
ag232
ag233
ag234
asS'raspberry2'
p236
(lp237
g227
ag228
ag229
ag230
ag231
ag232
ag233
ag236
asS'high-chair2'
p238
(lp239
S'entity'
p240
aS'whole'
p241
aS'decoration'
p242
aS'for-sitting'
p243
aS'supports-people'
p244
aS'baby-size'
p245
aS'has-tray'
p246
ag238
asS'high-chair1'
p247
(lp248
g240
ag241
ag242
ag243
ag244
ag245
ag246
ag247
asS'high-chair0'
p249
(lp250
g240
ag241
ag242
ag243
ag244
ag245
ag246
ag249
asS'honeydew0'
p251
(lp252
S'entity'
p253
aS'whole'
p254
aS'produce'
p255
aS'large'
p256
aS'rounded'
p257
aS'hard-skin'
p258
aS'smooth-skin'
p259
aS'green-flesh'
p260
ag251
asS'honeydew1'
p261
(lp262
g253
ag254
ag255
ag256
ag257
ag258
ag259
ag260
ag261
asS'honeydew2'
p263
(lp264
g253
ag254
ag255
ag256
ag257
ag258
ag259
ag260
ag263
asS'tabby0'
p265
(lp266
S'entity'
p267
aS'whole'
p268
aS'animate'
p269
aS'feline'
p270
aS'carnivore'
p271
aS'mammal'
p272
aS'orange-fur'
p273
aS'stripes'
p274
ag265
asS'tabby1'
p275
(lp276
g267
ag268
ag269
ag270
ag271
ag272
ag273
ag274
ag275
asS'tabby2'
p277
(lp278
g267
ag268
ag269
ag270
ag271
ag272
ag273
ag274
ag277
asS'swivel-chair1'
p279
(lp280
S'entity'
p281
aS'whole'
p282
aS'decoration'
p283
aS'for-sitting'
p284
aS'supports-people'
p285
aS'swivels'
p286
aS'on-casters'
p287
ag279
asS'swivel-chair0'
p288
(lp289
g281
ag282
ag283
ag284
ag285
ag286
ag287
ag288
asS'swivel-chair2'
p290
(lp291
g281
ag282
ag283
ag284
ag285
ag286
ag287
ag290
asS'strawberry2'
p292
(lp293
S'entity'
p294
aS'whole'
p295
aS'produce'
p296
aS'small'
p297
aS'sweet'
p298
aS'fleshy'
p299
aS'red'
p300
aS'visible-seeds'
p301
ag292
asS'strawberry0'
p302
(lp303
g294
ag295
ag296
ag297
ag298
ag299
ag300
ag301
ag302
asS'strawberry1'
p304
(lp305
g294
ag295
ag296
ag297
ag298
ag299
ag300
ag301
ag304
asS'sailboat2'
p306
(lp307
g189
ag190
ag191
ag192
ag193
ag194
ag195
ag306
asS'Granny-Smith1'
p308
(lp309
g170
ag171
ag172
ag173
ag174
ag175
ag176
ag177
ag308
asS'Granny-Smith2'
p310
(lp311
g170
ag171
ag172
ag173
ag174
ag175
ag176
ag177
ag310
asS'sailboat1'
p312
(lp313
g189
ag190
ag191
ag192
ag193
ag194
ag195
ag312
asS'tow-truck2'
p314
(lp315
S'entity'
p316
aS'whole'
p317
aS'transport'
p318
aS'drives-on-roads'
p319
aS'separate-cab'
p320
aS'tows-cars'
p321
aS'has-tow-arm'
p322
ag314
asS'tow-truck0'
p323
(lp324
g316
ag317
ag318
ag319
ag320
ag321
ag322
ag323
asS'tow-truck1'
p325
(lp326
g316
ag317
ag318
ag319
ag320
ag321
ag322
ag325
asS'salmon1'
p327
(lp328
S'whole'
p329
aS'animate'
p330
aS'aquatic'
p331
aS'has-gills'
p332
aS'has-fins'
p333
aS'pink-tint'
p334
aS'swims-upstream'
p335
ag327
asS'McIntosh0'
p336
(lp337
S'entity'
p338
aS'whole'
p339
aS'produce'
p340
aS'midsize'
p341
aS'apple-shape'
p342
aS'has-stem'
p343
aS'red'
p344
aS'tangy'
p345
ag336
asS'McIntosh1'
p346
(lp347
g338
ag339
ag340
ag341
ag342
ag343
ag344
ag345
ag346
asS'McIntosh2'
p348
(lp349
g338
ag339
ag340
ag341
ag342
ag343
ag344
ag345
ag348
asS'waterbed2'
p350
(lp351
S'entity'
p352
aS'whole'
p353
aS'decoration'
p354
aS'for-resting'
p355
aS'has-mattress'
p356
aS'plastic-mattress'
p357
aS'water-filled'
p358
ag350
asS'waterbed1'
p359
(lp360
g352
ag353
ag354
ag355
ag356
ag357
ag358
ag359
asS'waterbed0'
p361
(lp362
g352
ag353
ag354
ag355
ag356
ag357
ag358
ag361
asS'cantelope1'
p363
(lp364
S'entity'
p365
aS'whole'
p366
aS'produce'
p367
aS'large'
p368
aS'rounded'
p369
aS'hard-skin'
p370
aS'rough-skin'
p371
aS'orange-flesh'
p372
ag363
asS'salmon0'
p373
(lp374
g329
ag330
ag331
ag332
ag333
ag334
ag335
ag373
asS'semitrailer1'
p375
(lp376
g180
ag181
ag182
ag183
ag184
ag185
ag186
ag375
asS'cantelope2'
p377
(lp378
g365
ag366
ag367
ag368
ag369
ag370
ag371
ag372
ag377
asS'dalmatian1'
p379
(lp380
S'entity'
p381
aS'whole'
p382
aS'animate'
p383
aS'canine'
p384
aS'carnivore'
p385
aS'mammal'
p386
aS'white-fur'
p387
aS'black-spots'
p388
ag379
asS'dalmatian0'
p389
(lp390
g381
ag382
ag383
ag384
ag385
ag386
ag387
ag388
ag389
asS'dalmatian2'
p391
(lp392
g381
ag382
ag383
ag384
ag385
ag386
ag387
ag388
ag391
asS'salmon2'
p393
(lp394
g329
ag330
ag331
ag332
ag333
ag334
ag335
ag393
asS'fighter-jet2'
p395
(lp396
S'entity'
p397
aS'whole'
p398
aS'transport'
p399
aS'flies'
p400
aS'fixed-wings'
p401
aS'has-weapons'
p402
aS'streamlined-shape'
p403
ag395
asS'fighter-jet1'
p404
(lp405
g397
ag398
ag399
ag400
ag401
ag402
ag403
ag404
asS'fighter-jet0'
p406
(lp407
g397
ag398
ag399
ag400
ag401
ag402
ag403
ag406
asS'trundle-bed2'
p408
(lp409
S'entity'
p410
aS'whole'
p411
aS'decoration'
p412
aS'for-resting'
p413
aS'has-mattress'
p414
aS'can-slide'
p415
aS'bed-on-top'
p416
ag408
asS'trundle-bed0'
p417
(lp418
g410
ag411
ag412
ag413
ag414
ag415
ag416
ag417
asS'trundle-bed1'
p419
(lp420
g410
ag411
ag412
ag413
ag414
ag415
ag416
ag419
asS'four-poster2'
p421
(lp422
S'entity'
p423
aS'whole'
p424
aS'decoration'
p425
aS'for-resting'
p426
aS'has-mattress'
p427
aS'four-posts'
p428
aS'upper-panel'
p429
ag421
asS'cantelope0'
p430
(lp431
g365
ag366
ag367
ag368
ag369
ag370
ag371
ag372
ag430
asS'four-poster0'
p432
(lp433
g423
ag424
ag425
ag426
ag427
ag428
ag429
ag432
asS'four-poster1'
p434
(lp435
g423
ag424
ag425
ag426
ag427
ag428
ag429
ag434
asS'manx1'
p436
(lp437
S'entity'
p438
aS'whole'
p439
aS'animate'
p440
aS'feline'
p441
aS'carnivore'
p442
aS'mammal'
p443
aS'no-tail'
p444
aS'round-head'
p445
ag436
asS'manx0'
p446
(lp447
g438
ag439
ag440
ag441
ag442
ag443
ag444
ag445
ag446
asS'manx2'
p448
(lp449
g438
ag439
ag440
ag441
ag442
ag443
ag444
ag445
ag448
asS'fire-truck1'
p450
(lp451
S'entity'
p452
aS'whole'
p453
aS'transport'
p454
aS'drives-on-roads'
p455
aS'separate-cab'
p456
aS'painted-red'
p457
aS'has-fire-hose'
p458
ag450
asS'fire-truck0'
p459
(lp460
g452
ag453
ag454
ag455
ag456
ag457
ag458
ag459
asS'fire-truck2'
p461
(lp462
g452
ag453
ag454
ag455
ag456
ag457
ag458
ag461
asS'airliner1'
p463
(lp464
g16
ag17
ag18
ag19
ag20
ag21
ag22
ag463
asS'airliner0'
p465
(lp466
g16
ag17
ag18
ag19
ag20
ag21
ag22
ag465
as.