(dp0
S'dalmatian1'
p1
(lp2
S'animal_f0'
p3
aS'animal_f1'
p4
aS'animal_f2'
p5
aS'dog_f0'
p6
aS'dog_f1'
p7
aS'dog_f2'
p8
aS'dalmatian_f0'
p9
aS'dalmatian_f1'
p10
aS'dalmatian_f2'
p11
aS'color27'
p12
aS'pose35'
p13
aS'size34'
p14
asS'dalmatian0'
p15
(lp16
g3
ag4
ag5
ag6
ag7
ag8
ag9
ag10
ag11
aS'color39'
p17
aS'pose38'
p18
aS'size39'
p19
asS'dalmatian2'
p20
(lp21
g3
ag4
ag5
ag6
ag7
ag8
ag9
ag10
ag11
aS'color9'
p22
aS'pose2'
p23
aS'size34'
p24
asS'tugboat2'
p25
(lp26
S'vehicle_f0'
p27
aS'vehicle_f1'
p28
aS'vehicle_f2'
p29
aS'boat_f0'
p30
aS'boat_f1'
p31
aS'boat_f2'
p32
aS'tugboat_f0'
p33
aS'tugboat_f1'
p34
aS'tugboat_f2'
p35
aS'color26'
p36
aS'pose5'
p37
aS'size21'
p38
asS'tugboat0'
p39
(lp40
g27
ag28
ag29
ag30
ag31
ag32
ag33
ag34
ag35
aS'color28'
p41
aS'pose0'
p42
aS'size9'
p43
asS'tugboat1'
p44
(lp45
g27
ag28
ag29
ag30
ag31
ag32
ag33
ag34
ag35
aS'color8'
p46
aS'pose20'
p47
aS'size25'
p48
asS'seaplane2'
p49
(lp50
S'vehicle_f0'
p51
aS'vehicle_f1'
p52
aS'vehicle_f2'
p53
aS'airplane_f0'
p54
aS'airplane_f1'
p55
aS'airplane_f2'
p56
aS'seaplane_f0'
p57
aS'seaplane_f1'
p58
aS'seaplane_f2'
p59
aS'color26'
p60
aS'pose8'
p61
aS'size17'
p62
asS'seaplane0'
p63
(lp64
g51
ag52
ag53
ag54
ag55
ag56
ag57
ag58
ag59
aS'color21'
p65
aS'pose13'
p66
aS'size38'
p67
asS'seaplane1'
p68
(lp69
g51
ag52
ag53
ag54
ag55
ag56
ag57
ag58
ag59
aS'color33'
p70
aS'pose20'
p71
aS'size27'
p72
asS'semitrailer1'
p73
(lp74
S'vehicle_f0'
p75
aS'vehicle_f1'
p76
aS'vehicle_f2'
p77
aS'truck_f0'
p78
aS'truck_f1'
p79
aS'truck_f2'
p80
aS'semitrailer_f0'
p81
aS'semitrailer_f1'
p82
aS'semitrailer_f2'
p83
aS'color10'
p84
aS'pose27'
p85
aS'size14'
p86
asS'sailboat2'
p87
(lp88
S'vehicle_f0'
p89
aS'vehicle_f1'
p90
aS'vehicle_f2'
p91
aS'boat_f0'
p92
aS'boat_f1'
p93
aS'boat_f2'
p94
aS'sailboat_f0'
p95
aS'sailboat_f1'
p96
aS'sailboat_f2'
p97
aS'color30'
p98
aS'pose3'
p99
aS'size14'
p100
asS'semitrailer0'
p101
(lp102
g75
ag76
ag77
ag78
ag79
ag80
ag81
ag82
ag83
aS'color10'
p103
aS'pose15'
p104
aS'size37'
p105
asS'sailboat0'
p106
(lp107
g89
ag90
ag91
ag92
ag93
ag94
ag95
ag96
ag97
aS'color8'
p108
aS'pose33'
p109
aS'size10'
p110
asS'sailboat1'
p111
(lp112
g89
ag90
ag91
ag92
ag93
ag94
ag95
ag96
ag97
aS'color13'
p113
aS'pose35'
p114
aS'size0'
p115
asS'semitrailer2'
p116
(lp117
g75
ag76
ag77
ag78
ag79
ag80
ag81
ag82
ag83
aS'color31'
p118
aS'pose28'
p119
aS'size0'
p120
asS'fighter-jet2'
p121
(lp122
S'vehicle_f0'
p123
aS'vehicle_f1'
p124
aS'vehicle_f2'
p125
aS'airplane_f0'
p126
aS'airplane_f1'
p127
aS'airplane_f2'
p128
aS'fighter-jet_f0'
p129
aS'fighter-jet_f1'
p130
aS'fighter-jet_f2'
p131
aS'color20'
p132
aS'pose29'
p133
aS'size9'
p134
asS'fighter-jet1'
p135
(lp136
g123
ag124
ag125
ag126
ag127
ag128
ag129
ag130
ag131
aS'color12'
p137
aS'pose14'
p138
aS'size15'
p139
asS'fighter-jet0'
p140
(lp141
g123
ag124
ag125
ag126
ag127
ag128
ag129
ag130
ag131
aS'color36'
p142
aS'pose15'
p143
aS'size13'
p144
asS'tow-truck2'
p145
(lp146
S'vehicle_f0'
p147
aS'vehicle_f1'
p148
aS'vehicle_f2'
p149
aS'truck_f0'
p150
aS'truck_f1'
p151
aS'truck_f2'
p152
aS'tow-truck_f0'
p153
aS'tow-truck_f1'
p154
aS'tow-truck_f2'
p155
aS'color10'
p156
aS'pose29'
p157
aS'size31'
p158
asS'tow-truck0'
p159
(lp160
g147
ag148
ag149
ag150
ag151
ag152
ag153
ag154
ag155
aS'color31'
p161
aS'pose21'
p162
aS'size31'
p163
asS'tow-truck1'
p164
(lp165
g147
ag148
ag149
ag150
ag151
ag152
ag153
ag154
ag155
aS'color30'
p166
aS'pose2'
p167
aS'size28'
p168
asS'siamese1'
p169
(lp170
S'animal_f0'
p171
aS'animal_f1'
p172
aS'animal_f2'
p173
aS'cat_f0'
p174
aS'cat_f1'
p175
aS'cat_f2'
p176
aS'siamese_f0'
p177
aS'siamese_f1'
p178
aS'siamese_f2'
p179
aS'color23'
p180
aS'pose29'
p181
aS'size31'
p182
asS'siamese0'
p183
(lp184
g171
ag172
ag173
ag174
ag175
ag176
ag177
ag178
ag179
aS'color37'
p185
aS'pose29'
p186
aS'size15'
p187
asS'siamese2'
p188
(lp189
g171
ag172
ag173
ag174
ag175
ag176
ag177
ag178
ag179
aS'color32'
p190
aS'pose38'
p191
aS'size18'
p192
asS'fire-truck1'
p193
(lp194
S'vehicle_f0'
p195
aS'vehicle_f1'
p196
aS'vehicle_f2'
p197
aS'truck_f0'
p198
aS'truck_f1'
p199
aS'truck_f2'
p200
aS'fire-truck_f0'
p201
aS'fire-truck_f1'
p202
aS'fire-truck_f2'
p203
aS'color8'
p204
aS'pose6'
p205
aS'size14'
p206
asS'fire-truck2'
p207
(lp208
g195
ag196
ag197
ag198
ag199
ag200
ag201
ag202
ag203
aS'color0'
p209
aS'pose16'
p210
aS'size18'
p211
asS'flounder2'
p212
(lp213
S'animal_f0'
p214
aS'animal_f1'
p215
aS'animal_f2'
p216
aS'fish_f0'
p217
aS'fish_f1'
p218
aS'fish_f2'
p219
aS'flounder_f0'
p220
aS'flounder_f1'
p221
aS'flounder_f2'
p222
aS'color8'
p223
aS'pose32'
p224
aS'size35'
p225
asS'flounder0'
p226
(lp227
g214
ag215
ag216
ag217
ag218
ag219
ag220
ag221
ag222
aS'color6'
p228
aS'pose13'
p229
aS'size33'
p230
asS'flounder1'
p231
(lp232
g214
ag215
ag216
ag217
ag218
ag219
ag220
ag221
ag222
aS'color37'
p233
aS'pose29'
p234
aS'size33'
p235
asS'motorboat1'
p236
(lp237
S'vehicle_f0'
p238
aS'vehicle_f1'
p239
aS'vehicle_f2'
p240
aS'boat_f0'
p241
aS'boat_f1'
p242
aS'boat_f2'
p243
aS'motorboat_f0'
p244
aS'motorboat_f1'
p245
aS'motorboat_f2'
p246
aS'color37'
p247
aS'pose19'
p248
aS'size3'
p249
asS'motorboat0'
p250
(lp251
g238
ag239
ag240
ag241
ag242
ag243
ag244
ag245
ag246
aS'color22'
p252
aS'pose19'
p253
aS'size38'
p254
asS'motorboat2'
p255
(lp256
g238
ag239
ag240
ag241
ag242
ag243
ag244
ag245
ag246
aS'color37'
p257
aS'pose24'
p258
aS'size8'
p259
asS'shark2'
p260
(lp261
S'animal_f0'
p262
aS'animal_f1'
p263
aS'animal_f2'
p264
aS'fish_f0'
p265
aS'fish_f1'
p266
aS'fish_f2'
p267
aS'shark_f0'
p268
aS'shark_f1'
p269
aS'shark_f2'
p270
aS'color10'
p271
aS'pose14'
p272
aS'size7'
p273
asS'shark1'
p274
(lp275
g262
ag263
ag264
ag265
ag266
ag267
ag268
ag269
ag270
aS'color6'
p276
aS'pose25'
p277
aS'size31'
p278
asS'shark0'
p279
(lp280
g262
ag263
ag264
ag265
ag266
ag267
ag268
ag269
ag270
aS'color2'
p281
aS'pose9'
p282
aS'size29'
p283
asS'salmon1'
p284
(lp285
S'animal_f0'
p286
aS'animal_f1'
p287
aS'animal_f2'
p288
aS'fish_f0'
p289
aS'fish_f1'
p290
aS'fish_f2'
p291
aS'salmon_f0'
p292
aS'salmon_f1'
p293
aS'salmon_f2'
p294
aS'color8'
p295
aS'pose14'
p296
aS'size21'
p297
asS'salmon0'
p298
(lp299
g286
ag287
ag288
ag289
ag290
ag291
ag292
ag293
ag294
aS'color8'
p300
aS'pose33'
p301
aS'size11'
p302
asS'salmon2'
p303
(lp304
g286
ag287
ag288
ag289
ag290
ag291
ag292
ag293
ag294
aS'color18'
p305
aS'pose8'
p306
aS'size6'
p307
asS'pug0'
p308
(lp309
S'animal_f0'
p310
aS'animal_f1'
p311
aS'animal_f2'
p312
aS'dog_f0'
p313
aS'dog_f1'
p314
aS'dog_f2'
p315
aS'pug_f0'
p316
aS'pug_f1'
p317
aS'pug_f2'
p318
aS'color19'
p319
aS'pose5'
p320
aS'size0'
p321
asS'pug1'
p322
(lp323
g310
ag311
ag312
ag313
ag314
ag315
ag316
ag317
ag318
aS'color23'
p324
aS'pose14'
p325
aS'size7'
p326
asS'pug2'
p327
(lp328
g310
ag311
ag312
ag313
ag314
ag315
ag316
ag317
ag318
aS'color23'
p329
aS'pose29'
p330
aS'size3'
p331
asS'manx1'
p332
(lp333
S'animal_f0'
p334
aS'animal_f1'
p335
aS'animal_f2'
p336
aS'cat_f0'
p337
aS'cat_f1'
p338
aS'cat_f2'
p339
aS'manx_f0'
p340
aS'manx_f1'
p341
aS'manx_f2'
p342
aS'color6'
p343
aS'pose2'
p344
aS'size16'
p345
asS'manx0'
p346
(lp347
g334
ag335
ag336
ag337
ag338
ag339
ag340
ag341
ag342
aS'color13'
p348
aS'pose35'
p349
aS'size15'
p350
asS'manx2'
p351
(lp352
g334
ag335
ag336
ag337
ag338
ag339
ag340
ag341
ag342
aS'color3'
p353
aS'pose25'
p354
aS'size31'
p355
asS'poodle2'
p356
(lp357
S'animal_f0'
p358
aS'animal_f1'
p359
aS'animal_f2'
p360
aS'dog_f0'
p361
aS'dog_f1'
p362
aS'dog_f2'
p363
aS'poodle_f0'
p364
aS'poodle_f1'
p365
aS'poodle_f2'
p366
aS'color30'
p367
aS'pose26'
p368
aS'size33'
p369
asS'fire-truck0'
p370
(lp371
g195
ag196
ag197
ag198
ag199
ag200
ag201
ag202
ag203
aS'color5'
p372
aS'pose36'
p373
aS'size27'
p374
asS'poodle0'
p375
(lp376
g358
ag359
ag360
ag361
ag362
ag363
ag364
ag365
ag366
aS'color23'
p377
aS'pose3'
p378
aS'size16'
p379
asS'poodle1'
p380
(lp381
g358
ag359
ag360
ag361
ag362
ag363
ag364
ag365
ag366
aS'color32'
p382
aS'pose39'
p383
aS'size31'
p384
asS'airliner1'
p385
(lp386
S'vehicle_f0'
p387
aS'vehicle_f1'
p388
aS'vehicle_f2'
p389
aS'airplane_f0'
p390
aS'airplane_f1'
p391
aS'airplane_f2'
p392
aS'airliner_f0'
p393
aS'airliner_f1'
p394
aS'airliner_f2'
p395
aS'color27'
p396
aS'pose7'
p397
aS'size18'
p398
asS'airliner2'
p399
(lp400
g387
ag388
ag389
ag390
ag391
ag392
ag393
ag394
ag395
aS'color4'
p401
aS'pose14'
p402
aS'size15'
p403
asS'tabby0'
p404
(lp405
S'animal_f0'
p406
aS'animal_f1'
p407
aS'animal_f2'
p408
aS'cat_f0'
p409
aS'cat_f1'
p410
aS'cat_f2'
p411
aS'tabby_f0'
p412
aS'tabby_f1'
p413
aS'tabby_f2'
p414
aS'color4'
p415
aS'pose30'
p416
aS'size21'
p417
asS'tabby1'
p418
(lp419
g406
ag407
ag408
ag409
ag410
ag411
ag412
ag413
ag414
aS'color26'
p420
aS'pose10'
p421
aS'size37'
p422
asS'tabby2'
p423
(lp424
g406
ag407
ag408
ag409
ag410
ag411
ag412
ag413
ag414
aS'color0'
p425
aS'pose37'
p426
aS'size34'
p427
asS'airliner0'
p428
(lp429
g387
ag388
ag389
ag390
ag391
ag392
ag393
ag394
ag395
aS'color15'
p430
aS'pose20'
p431
aS'size20'
p432
as.