(lp0
(dp1
S'motorboat0T'
p2
F1.3278812335783097e-05
sS'pug0T'
p3
F0.0001737103853912193
sS'fire-truck0T'
p4
F1.2783224947854463e-05
sS'manx0T'
p5
F0.00010358315533538376
sS'flounder0T'
p6
F0.00010645666352795687
sS'dalmatian0T'
p7
F0.00018187957255590568
sS'dalmatian1T'
p8
F0.00018514422534083823
sS'poodle0T'
p9
F0.00017064097679088373
sS'tabby0T'
p10
F0.00010581091019259201
sa(dp11
g2
F1.3625879938582052e-05
sg3
F0.0001875493831103832
sg4
F1.3127350002882837e-05
sg5
F0.00011276521316435006
sg6
F0.00011381107203489096
sg7
F0.00019583560400894388
sg8
F0.000199344267510557
sg9
F0.0001851038389669348
sg10
F0.00011502375621202213
sa(dp12
g2
F1.5182538869206894e-05
sg3
F0.00020457920569259532
sg4
F1.479075457875552e-05
sg5
F0.00012546865857429346
sg6
F0.00012648286303498113
sg7
F0.00019998918921316372
sg8
F0.0002035979869430852
sg9
F0.00020172521269657637
sg10
F0.0001280609535358014
sa(dp13
g2
F1.604906333525985e-05
sg3
F0.000161895946248975
sg4
F1.555987915313535e-05
sg5
F0.0001420590409765257
sg9
F0.00015976343047181674
sg7
F0.00016195255129237388
sg8
F0.00016484104457683155
sg6
F0.0001401741486077934
sg10
F0.00014784159536755586
sa.