(lp0
(dp1
S'fire-truck0T'
p2
F1.0184136998529679e-05
sS'pug0T'
p3
F0.00016434817146281788
sS'motorboat0T'
p4
F9.664136159422624e-06
sS'manx0T'
p5
F9.991256448385052e-05
sS'poodle0T'
p6
F0.00016295939230537401
sS'dalmatian0T'
p7
F0.00017595080987994706
sS'dalmatian1T'
p8
F0.00017799229322239344
sS'flounder0T'
p9
F9.97788718465268e-05
sS'tabby0T'
p10
F0.00010151571528173001
sa(dp11
g4
F1.0643596634057307e-05
sg3
F0.00018128080522292588
sg2
F1.0627966865558972e-05
sg5
F0.00011145467881556355
sg6
F0.00018006291793434606
sg7
F0.0001934958545316053
sg8
F0.00019570290975383584
sg9
F0.00011115345085427766
sg10
F0.00011325850271256784
sa(dp12
g2
F1.1874560106093105e-05
sg3
F0.00019216239630034406
sg4
F1.1658457404619864e-05
sg5
F0.00011984098732068296
sg6
F0.00019122839595677216
sg7
F0.00019347898241254058
sg8
F0.00019562811915294594
sg9
F0.00011945593220673445
sg10
F0.00012168285797446779
sa(dp13
g2
F1.2417638966033543e-05
sg3
F0.00015057304344802294
sg4
F1.2179789498536227e-05
sg5
F0.0001332980616092683
sg6
F0.00014895965494499098
sg7
F0.00015396060570746172
sg8
F0.00015555281281810182
sg9
F0.00013237334528755652
sg10
F0.000138503205540936
sa.