(dp0
S'fire-truck0T'
p1
(lp2
S'vehicle_f0'
p3
aS'vehicle_f1'
p4
aS'vehicle_f2'
p5
aS'truck_f0'
p6
aS'truck_f1'
p7
aS'truck_f2'
p8
aS'fire-truck_f0'
p9
aS'fire-truck_f1'
p10
aS'fire-truck_f2'
p11
aS'color33'
p12
aS'pose30'
p13
aS'size32'
p14
asS'pug0T'
p15
(lp16
S'animal_f0'
p17
aS'animal_f1'
p18
aS'animal_f2'
p19
aS'dog_f0'
p20
aS'dog_f1'
p21
aS'dog_f2'
p22
aS'pug_f0'
p23
aS'pug_f1'
p24
aS'pug_f2'
p25
aS'color12'
p26
aS'pose29'
p27
aS'size17'
p28
asS'motorboat0T'
p29
(lp30
S'vehicle_f0'
p31
aS'vehicle_f1'
p32
aS'vehicle_f2'
p33
aS'boat_f0'
p34
aS'boat_f1'
p35
aS'boat_f2'
p36
aS'motorboat_f0'
p37
aS'motorboat_f1'
p38
aS'motorboat_f2'
p39
aS'color36'
p40
aS'pose3'
p41
aS'size36'
p42
asS'manx0T'
p43
(lp44
S'animal_f0'
p45
aS'animal_f1'
p46
aS'animal_f2'
p47
aS'cat_f0'
p48
aS'cat_f1'
p49
aS'cat_f2'
p50
aS'manx_f0'
p51
aS'manx_f1'
p52
aS'manx_f2'
p53
aS'color33'
p54
aS'pose35'
p55
aS'size24'
p56
asS'poodle0T'
p57
(lp58
S'animal_f0'
p59
aS'animal_f1'
p60
aS'animal_f2'
p61
aS'dog_f0'
p62
aS'dog_f1'
p63
aS'dog_f2'
p64
aS'poodle_f0'
p65
aS'poodle_f1'
p66
aS'poodle_f2'
p67
aS'color9'
p68
aS'pose5'
p69
aS'size12'
p70
asS'dalmatian0T'
p71
(lp72
S'animal_f0'
p73
aS'animal_f1'
p74
aS'animal_f2'
p75
aS'dog_f0'
p76
aS'dog_f1'
p77
aS'dog_f2'
p78
aS'dalmatian_f0'
p79
aS'dalmatian_f1'
p80
aS'dalmatian_f2'
p81
aS'color28'
p82
aS'pose30'
p83
aS'size35'
p84
asS'dalmatian1T'
p85
(lp86
g73
ag74
ag75
ag76
ag77
ag78
ag79
ag80
ag81
aS'color6'
p87
aS'pose11'
p88
aS'size27'
p89
asS'flounder0T'
p90
(lp91
S'animal_f0'
p92
aS'animal_f1'
p93
aS'animal_f2'
p94
aS'fish_f0'
p95
aS'fish_f1'
p96
aS'fish_f2'
p97
aS'flounder_f0'
p98
aS'flounder_f1'
p99
aS'flounder_f2'
p100
aS'color24'
p101
aS'pose17'
p102
aS'size34'
p103
asS'tabby0T'
p104
(lp105
S'animal_f0'
p106
aS'animal_f1'
p107
aS'animal_f2'
p108
aS'cat_f0'
p109
aS'cat_f1'
p110
aS'cat_f2'
p111
aS'tabby_f0'
p112
aS'tabby_f1'
p113
aS'tabby_f2'
p114
aS'color21'
p115
aS'pose34'
p116
aS'size12'
p117
as.