(dp0
S'rocking-chair1'
p1
(lp2
S'thing_f0'
p3
aS'thing_f1'
p4
aS'thingf_2'
p5
aS'furniture_f0'
p6
aS'furniture_f1'
p7
aS'furnituref_2'
p8
aS'chair_f0'
p9
aS'chair_f1'
p10
aS'chairf_2'
p11
aS'rocking-chair_f0'
p12
aS'rocking-chair_f1'
p13
aS'rocking-chairf_2'
p14
ag1
asS'rocking-chair0'
p15
(lp16
g3
ag4
ag5
ag6
ag7
ag8
ag9
ag10
ag11
ag12
ag13
ag14
ag15
asS'rocking-chair2'
p17
(lp18
g3
ag4
ag5
ag6
ag7
ag8
ag9
ag10
ag11
ag12
ag13
ag14
ag17
asS'airliner2'
p19
(lp20
S'vehicle_f0'
p21
aS'vehicle_f1'
p22
aS'vehiclef_2'
p23
aS'airplane_f0'
p24
aS'airplane_f1'
p25
aS'airplanef_2'
p26
aS'airliner_f0'
p27
aS'airliner_f1'
p28
aS'airlinerf_2'
p29
ag19
asS'seaplane2'
p30
(lp31
S'vehicle_f0'
p32
aS'vehicle_f1'
p33
aS'vehiclef_2'
p34
aS'airplane_f0'
p35
aS'airplane_f1'
p36
aS'airplanef_2'
p37
aS'seaplane_f0'
p38
aS'seaplane_f1'
p39
aS'seaplanef_2'
p40
ag30
asS'seaplane0'
p41
(lp42
g32
ag33
ag34
ag35
ag36
ag37
ag38
ag39
ag40
ag41
asS'seaplane1'
p43
(lp44
g32
ag33
ag34
ag35
ag36
ag37
ag38
ag39
ag40
ag43
asS'Golden-Delicious0'
p45
(lp46
S'honeydew_f0'
p47
aS'honeydew_f1'
p48
aS'honeydewf_2'
p49
aS'apple_f0'
p50
aS'apple_f1'
p51
aS'applef_2'
p52
aS'golden-delicious_f0'
p53
aS'golden-delicious_f1'
p54
aS'golden-deliciousf_2'
p55
ag45
asS'Golden-Delicious1'
p56
(lp57
g47
ag48
ag49
ag50
ag51
ag52
ag53
ag54
ag55
ag56
asS'Golden-Delicious2'
p58
(lp59
g47
ag48
ag49
ag50
ag51
ag52
ag53
ag54
ag55
ag58
asS'coffee-table0'
p60
(lp61
S'thing_f0'
p62
aS'thing_f1'
p63
aS'thingf_2'
p64
aS'furniture_f0'
p65
aS'furniture_f1'
p66
aS'furnituref_2'
p67
aS'table_f0'
p68
aS'table_f1'
p69
aS'tablef_2'
p70
aS'coffee-table_f0'
p71
aS'coffee-table_f1'
p72
aS'coffee-tablef_2'
p73
ag60
asS'coffee-table1'
p74
(lp75
g62
ag63
ag64
ag65
ag66
ag67
ag68
ag69
ag70
ag71
ag72
ag73
ag74
asS'coffee-table2'
p76
(lp77
g62
ag63
ag64
ag65
ag66
ag67
ag68
ag69
ag70
ag71
ag72
ag73
ag76
asS'kitchen-table2'
p78
(lp79
S'thing_f0'
p80
aS'thing_f1'
p81
aS'thingf_2'
p82
aS'furniture_f0'
p83
aS'furniture_f1'
p84
aS'furnituref_2'
p85
aS'table_f0'
p86
aS'table_f1'
p87
aS'tablef_2'
p88
aS'kitchen-table_f0'
p89
aS'kitchen-table_f1'
p90
aS'kitchen-tablef_2'
p91
ag78
asS'kitchen-table1'
p92
(lp93
g80
ag81
ag82
ag83
ag84
ag85
ag86
ag87
ag88
ag89
ag90
ag91
ag92
asS'kitchen-table0'
p94
(lp95
g80
ag81
ag82
ag83
ag84
ag85
ag86
ag87
ag88
ag89
ag90
ag91
ag94
asS'tugboat2'
p96
(lp97
S'vehicle_f0'
p98
aS'vehicle_f1'
p99
aS'vehiclef_2'
p100
aS'boat_f0'
p101
aS'boat_f1'
p102
aS'boatf_2'
p103
aS'tugboat_f0'
p104
aS'tugboat_f1'
p105
aS'tugboatf_2'
p106
ag96
asS'tugboat0'
p107
(lp108
g98
ag99
ag100
ag101
ag102
ag103
ag104
ag105
ag106
ag107
asS'tugboat1'
p109
(lp110
g98
ag99
ag100
ag101
ag102
ag103
ag104
ag105
ag106
ag109
asS'flounder2'
p111
(lp112
S'thing_f0'
p113
aS'thing_f1'
p114
aS'thingf_2'
p115
aS'animal_f0'
p116
aS'animal_f1'
p117
aS'animalf_2'
p118
aS'fish_f0'
p119
aS'fish_f1'
p120
aS'fishf_2'
p121
aS'flounder_f0'
p122
aS'flounder_f1'
p123
aS'flounderf_2'
p124
ag111
asS'flounder0'
p125
(lp126
g113
ag114
ag115
ag116
ag117
ag118
ag119
ag120
ag121
ag122
ag123
ag124
ag125
asS'flounder1'
p127
(lp128
g113
ag114
ag115
ag116
ag117
ag118
ag119
ag120
ag121
ag122
ag123
ag124
ag127
asS'motorboat1'
p129
(lp130
S'vehicle_f0'
p131
aS'vehicle_f1'
p132
aS'vehiclef_2'
p133
aS'boat_f0'
p134
aS'boat_f1'
p135
aS'boatf_2'
p136
aS'motorboat_f0'
p137
aS'motorboat_f1'
p138
aS'motorboatf_2'
p139
ag129
asS'motorboat0'
p140
(lp141
g131
ag132
ag133
ag134
ag135
ag136
ag137
ag138
ag139
ag140
asS'motorboat2'
p142
(lp143
g131
ag132
ag133
ag134
ag135
ag136
ag137
ag138
ag139
ag142
asS'card-table0'
p144
(lp145
S'thing_f0'
p146
aS'thing_f1'
p147
aS'thingf_2'
p148
aS'furniture_f0'
p149
aS'furniture_f1'
p150
aS'furnituref_2'
p151
aS'table_f0'
p152
aS'table_f1'
p153
aS'tablef_2'
p154
aS'card-table_f0'
p155
aS'card-table_f1'
p156
aS'card-tablef_2'
p157
ag144
asS'card-table1'
p158
(lp159
g146
ag147
ag148
ag149
ag150
ag151
ag152
ag153
ag154
ag155
ag156
ag157
ag158
asS'card-table2'
p160
(lp161
g146
ag147
ag148
ag149
ag150
ag151
ag152
ag153
ag154
ag155
ag156
ag157
ag160
asS'shark2'
p162
(lp163
S'thing_f0'
p164
aS'thing_f1'
p165
aS'thingf_2'
p166
aS'animal_f0'
p167
aS'animal_f1'
p168
aS'animalf_2'
p169
aS'fish_f0'
p170
aS'fish_f1'
p171
aS'fishf_2'
p172
aS'shark_f0'
p173
aS'shark_f1'
p174
aS'sharkf_2'
p175
ag162
asS'shark1'
p176
(lp177
g164
ag165
ag166
ag167
ag168
ag169
ag170
ag171
ag172
ag173
ag174
ag175
ag176
asS'shark0'
p178
(lp179
g164
ag165
ag166
ag167
ag168
ag169
ag170
ag171
ag172
ag173
ag174
ag175
ag178
asS'pug0'
p180
(lp181
S'thing_f0'
p182
aS'thing_f1'
p183
aS'thingf_2'
p184
aS'animal_f0'
p185
aS'animal_f1'
p186
aS'animalf_2'
p187
aS'dog_f0'
p188
aS'dog_f1'
p189
aS'dogf_2'
p190
aS'pug_f0'
p191
aS'pug_f1'
p192
aS'pugf_2'
p193
ag180
asS'pug1'
p194
(lp195
g182
ag183
ag184
ag185
ag186
ag187
ag188
ag189
ag190
ag191
ag192
ag193
ag194
asS'pug2'
p196
(lp197
g182
ag183
ag184
ag185
ag186
ag187
ag188
ag189
ag190
ag191
ag192
ag193
ag196
asS'poodle2'
p198
(lp199
S'thing_f0'
p200
aS'thing_f1'
p201
aS'thingf_2'
p202
aS'animal_f0'
p203
aS'animal_f1'
p204
aS'animalf_2'
p205
aS'dog_f0'
p206
aS'dog_f1'
p207
aS'dogf_2'
p208
aS'poodle_f0'
p209
aS'poodle_f1'
p210
aS'poodlef_2'
p211
ag198
asS'poodle0'
p212
(lp213
g200
ag201
ag202
ag203
ag204
ag205
ag206
ag207
ag208
ag209
ag210
ag211
ag212
asS'poodle1'
p214
(lp215
g200
ag201
ag202
ag203
ag204
ag205
ag206
ag207
ag208
ag209
ag210
ag211
ag214
asS'Granny-Smith0'
p216
(lp217
S'honeydew_f0'
p218
aS'honeydew_f1'
p219
aS'honeydewf_2'
p220
aS'apple_f0'
p221
aS'apple_f1'
p222
aS'applef_2'
p223
aS'granny-smith_f0'
p224
aS'granny-smith_f1'
p225
aS'granny-smithf_2'
p226
ag216
asS'semitrailer0'
p227
(lp228
S'vehicle_f0'
p229
aS'vehicle_f1'
p230
aS'vehiclef_2'
p231
aS'truck_f0'
p232
aS'truck_f1'
p233
aS'truckf_2'
p234
aS'semitrailer_f0'
p235
aS'semitrailer_f1'
p236
aS'semitrailerf_2'
p237
ag227
asS'sailboat0'
p238
(lp239
S'vehicle_f0'
p240
aS'vehicle_f1'
p241
aS'vehiclef_2'
p242
aS'boat_f0'
p243
aS'boat_f1'
p244
aS'boatf_2'
p245
aS'sailboat_f0'
p246
aS'sailboat_f1'
p247
aS'sailboatf_2'
p248
ag238
asS'semitrailer2'
p249
(lp250
g229
ag230
ag231
ag232
ag233
ag234
ag235
ag236
ag237
ag249
asS'blueberry2'
p251
(lp252
S'thing_f0'
p253
aS'thing_f1'
p254
aS'thingf_2'
p255
aS'fruit_f0'
p256
aS'fruit_f1'
p257
aS'fruitf_2'
p258
aS'berry_f0'
p259
aS'berry_f1'
p260
aS'berryf_2'
p261
aS'blueberry_f0'
p262
aS'blueberry_f1'
p263
aS'blueberryf_2'
p264
ag251
asS'blueberry0'
p265
(lp266
g253
ag254
ag255
ag256
ag257
ag258
ag259
ag260
ag261
ag262
ag263
ag264
ag265
asS'blueberry1'
p267
(lp268
g253
ag254
ag255
ag256
ag257
ag258
ag259
ag260
ag261
ag262
ag263
ag264
ag267
asS'siamese1'
p269
(lp270
S'thing_f0'
p271
aS'thing_f1'
p272
aS'thingf_2'
p273
aS'animal_f0'
p274
aS'animal_f1'
p275
aS'animalf_2'
p276
aS'cat_f0'
p277
aS'cat_f1'
p278
aS'catf_2'
p279
aS'siamese_f0'
p280
aS'siamese_f1'
p281
aS'siamesef_2'
p282
ag269
asS'siamese0'
p283
(lp284
g271
ag272
ag273
ag274
ag275
ag276
ag277
ag278
ag279
ag280
ag281
ag282
ag283
asS'siamese2'
p285
(lp286
g271
ag272
ag273
ag274
ag275
ag276
ag277
ag278
ag279
ag280
ag281
ag282
ag285
asS'raspberry0'
p287
(lp288
S'thing_f0'
p289
aS'thing_f1'
p290
aS'thingf_2'
p291
aS'fruit_f0'
p292
aS'fruit_f1'
p293
aS'fruitf_2'
p294
aS'berry_f0'
p295
aS'berry_f1'
p296
aS'berryf_2'
p297
aS'raspberry_f0'
p298
aS'raspberry_f1'
p299
aS'raspberryf_2'
p300
ag287
asS'raspberry1'
p301
(lp302
g289
ag290
ag291
ag292
ag293
ag294
ag295
ag296
ag297
ag298
ag299
ag300
ag301
asS'raspberry2'
p303
(lp304
g289
ag290
ag291
ag292
ag293
ag294
ag295
ag296
ag297
ag298
ag299
ag300
ag303
asS'high-chair2'
p305
(lp306
S'thing_f0'
p307
aS'thing_f1'
p308
aS'thingf_2'
p309
aS'furniture_f0'
p310
aS'furniture_f1'
p311
aS'furnituref_2'
p312
aS'chair_f0'
p313
aS'chair_f1'
p314
aS'chairf_2'
p315
aS'high-chair_f0'
p316
aS'high-chair_f1'
p317
aS'high-chairf_2'
p318
ag305
asS'high-chair1'
p319
(lp320
g307
ag308
ag309
ag310
ag311
ag312
ag313
ag314
ag315
ag316
ag317
ag318
ag319
asS'high-chair0'
p321
(lp322
g307
ag308
ag309
ag310
ag311
ag312
ag313
ag314
ag315
ag316
ag317
ag318
ag321
asS'honeydew0'
p323
(lp324
S'thing_f0'
p325
aS'thing_f1'
p326
aS'thingf_2'
p327
aS'fruit_f0'
p328
aS'fruit_f1'
p329
aS'fruitf_2'
p330
aS'melon_f0'
p331
aS'melon_f1'
p332
aS'melonf_2'
p333
aS'honeydew_f0'
p334
aS'honeydew_f1'
p335
aS'honeydewf_2'
p336
ag323
asS'honeydew1'
p337
(lp338
g325
ag326
ag327
ag328
ag329
ag330
ag331
ag332
ag333
ag334
ag335
ag336
ag337
asS'honeydew2'
p339
(lp340
g325
ag326
ag327
ag328
ag329
ag330
ag331
ag332
ag333
ag334
ag335
ag336
ag339
asS'tabby0'
p341
(lp342
S'thing_f0'
p343
aS'thing_f1'
p344
aS'thingf_2'
p345
aS'animal_f0'
p346
aS'animal_f1'
p347
aS'animalf_2'
p348
aS'cat_f0'
p349
aS'cat_f1'
p350
aS'catf_2'
p351
aS'tabby_f0'
p352
aS'tabby_f1'
p353
aS'tabbyf_2'
p354
ag341
asS'tabby1'
p355
(lp356
g343
ag344
ag345
ag346
ag347
ag348
ag349
ag350
ag351
ag352
ag353
ag354
ag355
asS'tabby2'
p357
(lp358
g343
ag344
ag345
ag346
ag347
ag348
ag349
ag350
ag351
ag352
ag353
ag354
ag357
asS'swivel-chair1'
p359
(lp360
S'thing_f0'
p361
aS'thing_f1'
p362
aS'thingf_2'
p363
aS'furniture_f0'
p364
aS'furniture_f1'
p365
aS'furnituref_2'
p366
aS'chair_f0'
p367
aS'chair_f1'
p368
aS'chairf_2'
p369
aS'swivel-chair_f0'
p370
aS'swivel-chair_f1'
p371
aS'swivel-chairf_2'
p372
ag359
asS'swivel-chair0'
p373
(lp374
g361
ag362
ag363
ag364
ag365
ag366
ag367
ag368
ag369
ag370
ag371
ag372
ag373
asS'swivel-chair2'
p375
(lp376
g361
ag362
ag363
ag364
ag365
ag366
ag367
ag368
ag369
ag370
ag371
ag372
ag375
asS'strawberry2'
p377
(lp378
S'thing_f0'
p379
aS'thing_f1'
p380
aS'thingf_2'
p381
aS'fruit_f0'
p382
aS'fruit_f1'
p383
aS'fruitf_2'
p384
aS'berry_f0'
p385
aS'berry_f1'
p386
aS'berryf_2'
p387
aS'strawberry_f0'
p388
aS'strawberry_f1'
p389
aS'strawberryf_2'
p390
ag377
asS'strawberry0'
p391
(lp392
g379
ag380
ag381
ag382
ag383
ag384
ag385
ag386
ag387
ag388
ag389
ag390
ag391
asS'strawberry1'
p393
(lp394
g379
ag380
ag381
ag382
ag383
ag384
ag385
ag386
ag387
ag388
ag389
ag390
ag393
asS'sailboat2'
p395
(lp396
g240
ag241
ag242
ag243
ag244
ag245
ag246
ag247
ag248
ag395
asS'Granny-Smith1'
p397
(lp398
g218
ag219
ag220
ag221
ag222
ag223
ag224
ag225
ag226
ag397
asS'Granny-Smith2'
p399
(lp400
g218
ag219
ag220
ag221
ag222
ag223
ag224
ag225
ag226
ag399
asS'sailboat1'
p401
(lp402
g240
ag241
ag242
ag243
ag244
ag245
ag246
ag247
ag248
ag401
asS'tow-truck2'
p403
(lp404
S'vehicle_f0'
p405
aS'vehicle_f1'
p406
aS'vehiclef_2'
p407
aS'truck_f0'
p408
aS'truck_f1'
p409
aS'truckf_2'
p410
aS'tow-truck_f0'
p411
aS'tow-truck_f1'
p412
aS'tow-truckf_2'
p413
ag403
asS'tow-truck0'
p414
(lp415
g405
ag406
ag407
ag408
ag409
ag410
ag411
ag412
ag413
ag414
asS'tow-truck1'
p416
(lp417
g405
ag406
ag407
ag408
ag409
ag410
ag411
ag412
ag413
ag416
asS'salmon1'
p418
(lp419
S'thing_f0'
p420
aS'thing_f1'
p421
aS'thingf_2'
p422
aS'animal_f0'
p423
aS'animal_f1'
p424
aS'animalf_2'
p425
aS'fish_f0'
p426
aS'fish_f1'
p427
aS'fishf_2'
p428
aS'salmon_f0'
p429
aS'salmon_f1'
p430
aS'salmonf_2'
p431
ag418
asS'McIntosh0'
p432
(lp433
S'honeydew_f0'
p434
aS'honeydew_f1'
p435
aS'honeydewf_2'
p436
aS'apple_f0'
p437
aS'apple_f1'
p438
aS'applef_2'
p439
aS'mcintosh_f0'
p440
aS'mcintosh_f1'
p441
aS'mcintoshf_2'
p442
ag432
asS'McIntosh1'
p443
(lp444
g434
ag435
ag436
ag437
ag438
ag439
ag440
ag441
ag442
ag443
asS'McIntosh2'
p445
(lp446
g434
ag435
ag436
ag437
ag438
ag439
ag440
ag441
ag442
ag445
asS'waterbed2'
p447
(lp448
S'thing_f0'
p449
aS'thing_f1'
p450
aS'thingf_2'
p451
aS'furniture_f0'
p452
aS'furniture_f1'
p453
aS'furnituref_2'
p454
aS'bed_f0'
p455
aS'bed_f1'
p456
aS'bedf_2'
p457
aS'waterbed_f0'
p458
aS'waterbed_f1'
p459
aS'waterbedf_2'
p460
ag447
asS'waterbed1'
p461
(lp462
g449
ag450
ag451
ag452
ag453
ag454
ag455
ag456
ag457
ag458
ag459
ag460
ag461
asS'waterbed0'
p463
(lp464
g449
ag450
ag451
ag452
ag453
ag454
ag455
ag456
ag457
ag458
ag459
ag460
ag463
asS'cantelope1'
p465
(lp466
S'thing_f0'
p467
aS'thing_f1'
p468
aS'thingf_2'
p469
aS'fruit_f0'
p470
aS'fruit_f1'
p471
aS'fruitf_2'
p472
aS'melon_f0'
p473
aS'melon_f1'
p474
aS'melonf_2'
p475
aS'cantelope_f0'
p476
aS'cantelope_f1'
p477
aS'cantelopef_2'
p478
ag465
asS'salmon0'
p479
(lp480
g420
ag421
ag422
ag423
ag424
ag425
ag426
ag427
ag428
ag429
ag430
ag431
ag479
asS'semitrailer1'
p481
(lp482
g229
ag230
ag231
ag232
ag233
ag234
ag235
ag236
ag237
ag481
asS'cantelope2'
p483
(lp484
g467
ag468
ag469
ag470
ag471
ag472
ag473
ag474
ag475
ag476
ag477
ag478
ag483
asS'dalmatian1'
p485
(lp486
S'thing_f0'
p487
aS'thing_f1'
p488
aS'thingf_2'
p489
aS'animal_f0'
p490
aS'animal_f1'
p491
aS'animalf_2'
p492
aS'dog_f0'
p493
aS'dog_f1'
p494
aS'dogf_2'
p495
aS'dalmatian_f0'
p496
aS'dalmatian_f1'
p497
aS'dalmatianf_2'
p498
ag485
asS'dalmatian0'
p499
(lp500
g487
ag488
ag489
ag490
ag491
ag492
ag493
ag494
ag495
ag496
ag497
ag498
ag499
asS'dalmatian2'
p501
(lp502
g487
ag488
ag489
ag490
ag491
ag492
ag493
ag494
ag495
ag496
ag497
ag498
ag501
asS'salmon2'
p503
(lp504
g420
ag421
ag422
ag423
ag424
ag425
ag426
ag427
ag428
ag429
ag430
ag431
ag503
asS'fighter-jet2'
p505
(lp506
S'vehicle_f0'
p507
aS'vehicle_f1'
p508
aS'vehiclef_2'
p509
aS'airplane_f0'
p510
aS'airplane_f1'
p511
aS'airplanef_2'
p512
aS'fighter-jet_f0'
p513
aS'fighter-jet_f1'
p514
aS'fighter-jetf_2'
p515
ag505
asS'fighter-jet1'
p516
(lp517
g507
ag508
ag509
ag510
ag511
ag512
ag513
ag514
ag515
ag516
asS'fighter-jet0'
p518
(lp519
g507
ag508
ag509
ag510
ag511
ag512
ag513
ag514
ag515
ag518
asS'trundle-bed2'
p520
(lp521
S'thing_f0'
p522
aS'thing_f1'
p523
aS'thingf_2'
p524
aS'furniture_f0'
p525
aS'furniture_f1'
p526
aS'furnituref_2'
p527
aS'bed_f0'
p528
aS'bed_f1'
p529
aS'bedf_2'
p530
aS'trundle-bed_f0'
p531
aS'trundle-bed_f1'
p532
aS'trundle-bedf_2'
p533
ag520
asS'trundle-bed0'
p534
(lp535
g522
ag523
ag524
ag525
ag526
ag527
ag528
ag529
ag530
ag531
ag532
ag533
ag534
asS'trundle-bed1'
p536
(lp537
g522
ag523
ag524
ag525
ag526
ag527
ag528
ag529
ag530
ag531
ag532
ag533
ag536
asS'four-poster2'
p538
(lp539
S'thing_f0'
p540
aS'thing_f1'
p541
aS'thingf_2'
p542
aS'furniture_f0'
p543
aS'furniture_f1'
p544
aS'furnituref_2'
p545
aS'bed_f0'
p546
aS'bed_f1'
p547
aS'bedf_2'
p548
aS'four-poster_f0'
p549
aS'four-poster_f1'
p550
aS'four-posterf_2'
p551
ag538
asS'cantelope0'
p552
(lp553
g467
ag468
ag469
ag470
ag471
ag472
ag473
ag474
ag475
ag476
ag477
ag478
ag552
asS'four-poster0'
p554
(lp555
g540
ag541
ag542
ag543
ag544
ag545
ag546
ag547
ag548
ag549
ag550
ag551
ag554
asS'four-poster1'
p556
(lp557
g540
ag541
ag542
ag543
ag544
ag545
ag546
ag547
ag548
ag549
ag550
ag551
ag556
asS'manx1'
p558
(lp559
S'thing_f0'
p560
aS'thing_f1'
p561
aS'thingf_2'
p562
aS'animal_f0'
p563
aS'animal_f1'
p564
aS'animalf_2'
p565
aS'cat_f0'
p566
aS'cat_f1'
p567
aS'catf_2'
p568
aS'manx_f0'
p569
aS'manx_f1'
p570
aS'manxf_2'
p571
ag558
asS'manx0'
p572
(lp573
g560
ag561
ag562
ag563
ag564
ag565
ag566
ag567
ag568
ag569
ag570
ag571
ag572
asS'manx2'
p574
(lp575
g560
ag561
ag562
ag563
ag564
ag565
ag566
ag567
ag568
ag569
ag570
ag571
ag574
asS'fire-truck1'
p576
(lp577
S'vehicle_f0'
p578
aS'vehicle_f1'
p579
aS'vehiclef_2'
p580
aS'truck_f0'
p581
aS'truck_f1'
p582
aS'truckf_2'
p583
aS'fire-truck_f0'
p584
aS'fire-truck_f1'
p585
aS'fire-truckf_2'
p586
ag576
asS'fire-truck0'
p587
(lp588
g578
ag579
ag580
ag581
ag582
ag583
ag584
ag585
ag586
ag587
asS'fire-truck2'
p589
(lp590
g578
ag579
ag580
ag581
ag582
ag583
ag584
ag585
ag586
ag589
asS'airliner1'
p591
(lp592
g21
ag22
ag23
ag24
ag25
ag26
ag27
ag28
ag29
ag591
asS'airliner0'
p593
(lp594
g21
ag22
ag23
ag24
ag25
ag26
ag27
ag28
ag29
ag593
as.