(dp0
S'bell pepper'
p1
I141869
sS'living thing'
p2
I432152
sS'vertebrate'
p3
I0
sS'wheeled vehicle'
p4
I34308
sS'entity'
p5
I0
sS'lettuce'
p6
I0
sS'green pepper'
p7
I137215
sS'motorcycle'
p8
I0
sS'tandem trailer'
p9
I375
sS'trailer truck'
p10
I10306
sS'sports car'
p11
I190644
sS'garbage truck'
p12
I25955
sS'horse'
p13
I0
sS'aquatic mammal'
p14
I3134
sS'toy dog'
p15
I13082
sS'hearse'
p16
I0
sS'cayenne'
p17
I0
sS'piciform bird'
p18
I0
sS'gherkin'
p19
I0
sS'beagle'
p20
I0
sS'pinniped mammal'
p21
I0
sS'whole'
p22
I0
sS'root vegetable'
p23
I9706
sS'crisphead lettuce'
p24
I922
sS'limousine'
p25
I0
sS'pumpkin'
p26
I0
sS'workhorse'
p27
I0
sS'eared seal'
p28
I847
sS'pembroke'
p29
I0
sS'shallot'
p30
I0
sS'artifact'
p31
I0
sS'berlin'
p32
I0
sS'brown bear'
p33
I91711
sS'hot pepper'
p34
I55285
sS'chili'
p35
I0
sS'king charles spaniel'
p36
I0
sS'placental'
p37
I0
sS'equine'
p38
I0
sS'greens'
p39
I0
sS'onion'
p40
I0
sS'gypsy cab'
p41
I2666
sS'solid'
p42
I0
sS'car'
p43
I0
sS'grizzly'
p44
I0
sS'tabby'
p45
I0
sS'motor vehicle'
p46
I1067202
sS'cat'
p47
I0
sS'matter'
p48
I0
sS'dump truck'
p49
I39804
sS'mammal'
p50
I0
sS'chordate'
p51
I0
sS'cab'
p52
I0
sS'carnivore'
p53
I0
sS'toucanet'
p54
I0
sS'fire engine'
p55
I120934
sS'trail bike'
p56
I3664
sS'canine'
p57
I0
sS'uruguay potato'
p58
I0
sS'ladder truck'
p59
I9084
sS'carrot'
p60
I0
sS'even-toed ungulate'
p61
I0
sS'seal'
p62
I0
sS'toucan'
p63
I0
sS'domestic cat'
p64
I48864
sS'hound'
p65
I0
sS'hippopotamus'
p66
I0
sS'container'
p67
I0
sS'salad green'
p68
I3509
sS'subcompact'
p69
I0
sS'feline'
p70
I0
sS'self-propelled vehicle'
p71
I0
sS'toy spaniel'
p72
I3146
sS'california sea lion'
p73
I0
sS'food'
p74
I0
sS'animal'
p75
I0
sS'vegetable'
p76
I0
sS'bird'
p77
I0
sS'pepper'
p78
I0
sS'physical entity'
p79
I39325
sS'object'
p80
I0
sS'produce'
p81
I0
sS'cucumber'
p82
I0
sS'bear'
p83
I0
sS'organism'
p84
I0
sS'pimento'
p85
I0
sS'transporter'
p86
I0
sS'dalmatian'
p87
I0
sS'shih-tzu'
p88
I0
sS'ungulate'
p89
I0
sS'tabasco'
p90
I0
sS'corgi'
p91
I0
sS'hunting dog'
p92
I46594
sS'sea lion'
p93
I109986
sS'potato'
p94
I0
sS'farm horse'
p95
I6464
sS'dog'
p96
I0
sS'truck'
p97
I0
sS'sweet pepper'
p98
I19746
sS'liver-spotted dalmatian'
p99
I0
sS'instrumentality'
p100
I0
sS'odd-toed ungulate'
p101
I0
sS'solanaceous vegetable'
p102
I70
s.