(dp0
S'carnivore'
p1
I50
sS'living thing'
p2
I65
sS'brown bear'
p3
I19
sS'fire engine'
p4
I101
sS'wheeled vehicle'
p5
I3
sS'canine'
p6
I192
sS'entity'
p7
I1162
sS'lettuce'
p8
I370
sS'carrot'
p9
I369
sS'hunting dog'
p10
I12
sS'motorcycle'
p11
I282
sS'seal'
p12
I1370
sS'toucan'
p13
I12
sS'aquatic mammal'
p14
I1
sS'hound'
p15
I267
sS'sports car'
p16
I237
sS'hippopotamus'
p17
I39
sS'dump truck'
p18
I1
sS'garbage truck'
p19
I2
sS'horse'
p20
I7435
sS'container'
p21
I826
sS'ungulate'
p22
I3
sS'physical entity'
p23
I8
sS'subcompact'
p24
I2
sS'toy dog'
p25
I4
sS'hearse'
p26
I106
sS'feline'
p27
I142
sS'vertebrate'
p28
I113
sS'self-propelled vehicle'
p29
I1
sS'hot pepper'
p30
I2
sS'placental'
p31
I74
sS'beagle'
p32
I78
sS'shallot'
p33
I163
sS'sweet pepper'
p34
I2
sS'whole'
p35
I29986
sS'animal'
p36
I6620
sS'root vegetable'
p37
I2
sS'vegetable'
p38
I956
sS'corgi'
p39
I94
sS'limousine'
p40
I156
sS'bird'
p41
I3821
sS'pumpkin'
p42
I71
sS'pepper'
p43
I823
sS'workhorse'
p44
I50
sS'domestic cat'
p45
I27
sS'cab'
p46
I1425
sS'dog'
p47
I7747
sS'food'
p48
I18358
sS'object'
p49
I6208
sS'bear'
p50
I5572
sS'berlin'
p51
I2373
sS'produce'
p52
I11467
sS'cucumber'
p53
I201
sS'artifact'
p54
I42
sS'pimento'
p55
I5
sS'transporter'
p56
I126
sS'chili'
p57
I39
sS'king charles spaniel'
p58
I11
sS'dalmatian'
p59
I49
sS'gherkin'
p60
I11
sS'sea lion'
p61
I12
sS'tabasco'
p62
I34
sS'pembroke'
p63
I248
sS'equine'
p64
I92
sS'greens'
p65
I844
sS'potato'
p66
I842
sS'solid'
p67
I3569
sS'car'
p68
I26466
sS'grizzly'
p69
I56
sS'tabby'
p70
I72
sS'onion'
p71
I634
sS'motor vehicle'
p72
I273
sS'cayenne'
p73
I43
sS'matter'
p74
I20003
sS'green pepper'
p75
I20
sS'truck'
p76
I1103
sS'cat'
p77
I3817
sS'mammal'
p78
I284
sS'trail bike'
p79
I2
sS'organism'
p80
I767
sS'chordate'
p81
I4
sS'instrumentality'
p82
I13
s.