(dp0
S'vertebrate'
p1
I958482
sS'ungulate'
p2
I54945
sS'bell pepper'
p3
I141869
sS'living thing'
p4
I432152
sS'garbage'
p5
I2196584
sS'odd-toed ungulate'
p6
I0
sS'armchair'
p7
I801835
sS'pot'
p8
I6861614
sS'pimento'
p9
I67490
sS'fur coat'
p10
I171702
sS'sea lion'
p11
I109986
sS"captain's chair"
p12
I0
sS'entity'
p13
I7959569
sS'lettuce'
p14
I1161041
sS'dashiki'
p15
I8994
sS'green pepper'
p16
I137215
sS'furnishing'
p17
I1815827
sS'placental'
p18
I796981
sS'ladder-back'
p19
I0
sS'chair'
p20
I18768162
sS'sports car'
p21
I190644
sS'kurta'
p22
I27234
sS'sofa'
p23
I2246706
sS'garbage truck'
p24
I25955
sS'horse'
p25
I28947896
sS'goblet'
p26
I506110
sS'toy dog'
p27
I13082
sS'hearse'
p28
I299604
sS'shoebox'
p29
I55481
sS'cayenne'
p30
I354419
sS'piciform bird'
p31
I0
sS'bench'
p32
I6014968
sS'beagle'
p33
I311415
sS'settee'
p34
I193610
sS'matchbox'
p35
I81139
sS'pinniped mammal'
p36
I0
sS'sweet pepper'
p37
I19746
sS'whole'
p38
I132198611
sS'fire engine'
p39
I120934
sS'crisphead lettuce'
p40
I922
sS'swivel chair'
p41
I74373
sS'limousine'
p42
I418332
sS'planter'
p43
I1209314
sS'pumpkin'
p44
I723607
sS'tabasco'
p45
I200434
sS'workhorse'
p46
I71781
sS'eared seal'
p47
I847
sS'boston rocker'
p48
I3143
sS'overgarment'
p49
I5517
sS'food'
p50
I72069381
sS'root vegetable'
p51
I9706
sS'lawn chair'
p52
I32593
sS'motorcycle'
p53
I863977
sS'artifact'
p54
I1110903
sS'salad green'
p55
I3509
sS'shallot'
p56
I70503
sS'glass'
p57
I32012837
sS'berlin'
p58
I15281626
sS'uruguay potato'
p59
I0
sS'brown bear'
p60
I91711
sS'hot pepper'
p61
I55285
sS'chili'
p62
I892862
sS'king charles spaniel'
p63
I0
sS'gherkin'
p64
I14279
sS'furniture'
p65
I9259076
sS'tank top'
p66
I62272
sS'onion'
p67
I2276052
sS'greens'
p68
I1571177
sS'gypsy cab'
p69
I2666
sS'solid'
p70
I23487631
sS'car'
p71
I35783631
sS'chordate'
p72
I30781
sS'ashtray'
p73
I230401
sS'trailer truck'
p74
I10306
sS'motor vehicle'
p75
I1067202
sS'cat'
p76
I11392061
sS'matter'
p77
I99014641
sS'settle'
p78
I8898934
sS'dump truck'
p79
I39804
sS'farm horse'
p80
I6464
sS'even-toed ungulate'
p81
I0
sS'grizzly'
p82
I546860
sS'shot glass'
p83
I25922
sS'instrumentality'
p84
I598998
sS'carnivore'
p85
I152270
sS'raincoat'
p86
I259509
sS'daybed'
p87
I25463
sS'garment'
p88
I2809305
sS'trail bike'
p89
I3664
sS'canine'
p90
I1072842
sS'seat'
p91
I18477838
sS'ladder truck'
p92
I9084
sS'carrot'
p93
I905253
sS'hunting dog'
p94
I46594
sS'tabby'
p95
I200834
sS'seal'
p96
I7956289
sS'toucan'
p97
I45418
sS'domestic cat'
p98
I48864
sS'hound'
p99
I961872
sS'clothing'
p100
I11255928
sS'dress shirt'
p101
I41652
sS'hippopotamus'
p102
I267597
sS'cigar box'
p103
I42439
sS'container'
p104
I4477433
sS'shirt'
p105
I6616218
sS'oilskin'
p106
I44613
sS'receptacle'
p107
I890049
sS'feline'
p108
I421273
sS'self-propelled vehicle'
p109
I0
sS'toy spaniel'
p110
I3146
sS'california sea lion'
p111
I0
sS'rocking chair'
p112
I213164
sS'polo shirt'
p113
I43969
sS'animal'
p114
I33461074
sS'mammal'
p115
I826825
sS'vegetable'
p116
I6126434
sS'cereal box'
p117
I20575
sS'tandem trailer'
p118
I375
sS'beer glass'
p119
I14871
sS'bird'
p120
I15480859
sS'toucanet'
p121
I1350
sS'pepper'
p122
I4534229
sS'trouser'
p123
I213365
sS'pew'
p124
I759625
sS'cab'
p125
I2683792
sS'physical entity'
p126
I39325
sS'object'
p127
I59584257
sS'love seat'
p128
I41223
sS'pea jacket'
p129
I7635
sS'mailbox'
p130
I511623
sS'skirt'
p131
I2550994
sS'produce'
p132
I47692091
sS'cucumber'
p133
I680340
sS'bear'
p134
I28198856
sS'corgi'
p135
I39490
sS'park bench'
p136
I71688
sS'transporter'
p137
I393439
sS'chino'
p138
I126187
sS'dalmatian'
p139
I163095
sS'shih-tzu'
p140
I0
sS'aquatic mammal'
p141
I3134
sS'box'
p142
I36987674
sS'pembroke'
p143
I789978
sS'full skirt'
p144
I31675
sS'equine'
p145
I403654
sS'commodity'
p146
I6511229
sS'potato'
p147
I3709371
sS'coat'
p148
I10489820
sS'subcompact'
p149
I19635
sS'dog'
p150
I19917535
sS'wheeled vehicle'
p151
I34308
sS'jacket'
p152
I4601917
sS'sable coat'
p153
I8080
sS'truck'
p154
I7137071
sS'consumer goods'
p155
I1208544
sS'liver-spotted dalmatian'
p156
I0
sS'solanaceous vegetable'
p157
I70
sS'organism'
p158
I7709916
sS'pajama'
p159
I95856
sS'macintosh'
p160
I1042889
s.