(dp0
S'dalmatian1'
p1
(lp2
S'animal_f0'
p3
aS'animal_f1'
p4
aS'animal_f2'
p5
aS'dog_f0'
p6
aS'dog_f1'
p7
aS'dog_f2'
p8
aS'dalmatian_f0'
p9
aS'dalmatian_f1'
p10
aS'dalmatian_f2'
p11
ag1
asS'dalmatian0'
p12
(lp13
g3
ag4
ag5
ag6
ag7
ag8
ag9
ag10
ag11
ag12
asS'dalmatian2'
p14
(lp15
g3
ag4
ag5
ag6
ag7
ag8
ag9
ag10
ag11
ag14
asS'siamese1'
p16
(lp17
S'animal_f0'
p18
aS'animal_f1'
p19
aS'animal_f2'
p20
aS'cat_f0'
p21
aS'cat_f1'
p22
aS'cat_f2'
p23
aS'siamese_f0'
p24
aS'siamese_f1'
p25
aS'siamese_f2'
p26
ag16
asS'siamese0'
p27
(lp28
g18
ag19
ag20
ag21
ag22
ag23
ag24
ag25
ag26
ag27
asS'siamese2'
p29
(lp30
g18
ag19
ag20
ag21
ag22
ag23
ag24
ag25
ag26
ag29
asS'flounder2'
p31
(lp32
S'animal_f0'
p33
aS'animal_f1'
p34
aS'animal_f2'
p35
aS'fish_f0'
p36
aS'fish_f1'
p37
aS'fish_f2'
p38
aS'flounder_f0'
p39
aS'flounder_f1'
p40
aS'flounder_f2'
p41
ag31
asS'flounder0'
p42
(lp43
g33
ag34
ag35
ag36
ag37
ag38
ag39
ag40
ag41
ag42
asS'flounder1'
p44
(lp45
g33
ag34
ag35
ag36
ag37
ag38
ag39
ag40
ag41
ag44
asS'shark2'
p46
(lp47
S'animal_f0'
p48
aS'animal_f1'
p49
aS'animal_f2'
p50
aS'fish_f0'
p51
aS'fish_f1'
p52
aS'fish_f2'
p53
aS'shark_f0'
p54
aS'shark_f1'
p55
aS'shark_f2'
p56
ag46
asS'shark1'
p57
(lp58
g48
ag49
ag50
ag51
ag52
ag53
ag54
ag55
ag56
ag57
asS'shark0'
p59
(lp60
g48
ag49
ag50
ag51
ag52
ag53
ag54
ag55
ag56
ag59
asS'salmon1'
p61
(lp62
S'animal_f0'
p63
aS'animal_f1'
p64
aS'animal_f2'
p65
aS'fish_f0'
p66
aS'fish_f1'
p67
aS'fish_f2'
p68
aS'salmon_f0'
p69
aS'salmon_f1'
p70
aS'salmon_f2'
p71
ag61
asS'salmon0'
p72
(lp73
g63
ag64
ag65
ag66
ag67
ag68
ag69
ag70
ag71
ag72
asS'salmon2'
p74
(lp75
g63
ag64
ag65
ag66
ag67
ag68
ag69
ag70
ag71
ag74
asS'pug0'
p76
(lp77
S'animal_f0'
p78
aS'animal_f1'
p79
aS'animal_f2'
p80
aS'dog_f0'
p81
aS'dog_f1'
p82
aS'dog_f2'
p83
aS'pug_f0'
p84
aS'pug_f1'
p85
aS'pug_f2'
p86
ag76
asS'pug1'
p87
(lp88
g78
ag79
ag80
ag81
ag82
ag83
ag84
ag85
ag86
ag87
asS'pug2'
p89
(lp90
g78
ag79
ag80
ag81
ag82
ag83
ag84
ag85
ag86
ag89
asS'manx1'
p91
(lp92
S'animal_f0'
p93
aS'animal_f1'
p94
aS'animal_f2'
p95
aS'cat_f0'
p96
aS'cat_f1'
p97
aS'cat_f2'
p98
aS'manx_f0'
p99
aS'manx_f1'
p100
aS'manx_f2'
p101
ag91
asS'manx0'
p102
(lp103
g93
ag94
ag95
ag96
ag97
ag98
ag99
ag100
ag101
ag102
asS'manx2'
p104
(lp105
g93
ag94
ag95
ag96
ag97
ag98
ag99
ag100
ag101
ag104
asS'poodle2'
p106
(lp107
S'animal_f0'
p108
aS'animal_f1'
p109
aS'animal_f2'
p110
aS'dog_f0'
p111
aS'dog_f1'
p112
aS'dog_f2'
p113
aS'poodle_f0'
p114
aS'poodle_f1'
p115
aS'poodle_f2'
p116
ag106
asS'poodle0'
p117
(lp118
g108
ag109
ag110
ag111
ag112
ag113
ag114
ag115
ag116
ag117
asS'poodle1'
p119
(lp120
g108
ag109
ag110
ag111
ag112
ag113
ag114
ag115
ag116
ag119
asS'tabby0'
p121
(lp122
S'animal_f0'
p123
aS'animal_f1'
p124
aS'animal_f2'
p125
aS'cat_f0'
p126
aS'cat_f1'
p127
aS'cat_f2'
p128
aS'tabby_f0'
p129
aS'tabby_f1'
p130
aS'tabby_f2'
p131
ag121
asS'tabby1'
p132
(lp133
g123
ag124
ag125
ag126
ag127
ag128
ag129
ag130
ag131
ag132
asS'tabby2'
p134
(lp135
g123
ag124
ag125
ag126
ag127
ag128
ag129
ag130
ag131
ag134
as.